target datalayout = "e-m:e-p270:32:32-p271:32:32-p272:64:64-i64:64-i128:128-f80:128-n8:16:32:64-S128"
target triple = "x86_64-pc-linux-gnu"

%struct.jpeg_decompress_struct = type { ptr, ptr, ptr, ptr, i32, i32, ptr, i32, i32, i32, i32, i32, i32, i32, double, i32, i32, i32, i32, i32, i32, i32, i32, i32, i32, i32, i32, i32, i32, i32, i32, i32, i32, ptr, i32, i32, i32, i32, i32, ptr, [4 x ptr], [4 x ptr], [4 x ptr], i32, ptr, i32, i32, [16 x i8], [16 x i8], [16 x i8], i32, i32, i8, i8, i8, i16, i16, i32, i8, i32, ptr, i32, i32, i32, i32, ptr, i32, [4 x ptr], i32, i32, i32, [10 x i32], i32, i32, i32, i32, i32, ptr, ptr, ptr, ptr, ptr, ptr, ptr, ptr, ptr, ptr, ptr }
%struct.jpeg_memory_mgr = type { ptr, ptr, ptr, ptr, ptr, ptr, ptr, ptr, ptr, ptr, ptr, i64, i64 }
%struct.bmp_dest_struct = type { %struct.djpeg_dest_struct, i32, ptr, i32, i32, i32, i32, i32, ptr }
%struct.djpeg_dest_struct = type { ptr, ptr, ptr, ptr, ptr, ptr, ptr, ptr, i32 }

; Function Attrs: nounwind uwtable
define internal void @put_gray_rows(ptr noundef %0, ptr noundef %1, i32 noundef %2) #0 {
  %4 = alloca ptr, align 8
  %5 = alloca ptr, align 8
  %6 = alloca i32, align 4
  %7 = alloca ptr, align 8
  %8 = alloca ptr, align 8
  %9 = alloca ptr, align 8
  %10 = alloca ptr, align 8
  %11 = alloca i32, align 4
  store ptr %0, ptr %4, align 8, !tbaa !4
  store ptr %1, ptr %5, align 8, !tbaa !79
  store i32 %2, ptr %6, align 4, !tbaa !9
  call void @llvm.lifetime.start.p0(i64 8, ptr %7) #7
  %12 = load ptr, ptr %5, align 8, !tbaa !79
  store ptr %12, ptr %7, align 8, !tbaa !43
  call void @llvm.lifetime.start.p0(i64 8, ptr %8) #7
  call void @llvm.lifetime.start.p0(i64 8, ptr %9) #7
  call void @llvm.lifetime.start.p0(i64 8, ptr %10) #7
  call void @llvm.lifetime.start.p0(i64 4, ptr %11) #7
  %13 = load ptr, ptr %7, align 8, !tbaa !43
  %14 = getelementptr inbounds nuw %struct.bmp_dest_struct, ptr %13, i32 0, i32 7
  %15 = load i32, ptr %14, align 8, !tbaa !75
  %16 = icmp ne i32 %15, 0
  br i1 %16, label %17, label %38

17:                                               ; preds = %3
  %18 = load ptr, ptr %4, align 8, !tbaa !4
  %19 = getelementptr inbounds nuw %struct.jpeg_decompress_struct, ptr %18, i32 0, i32 1
  %20 = load ptr, ptr %19, align 8, !tbaa !40
  %21 = getelementptr inbounds nuw %struct.jpeg_memory_mgr, ptr %20, i32 0, i32 7
  %22 = load ptr, ptr %21, align 8, !tbaa !86
  %23 = load ptr, ptr %4, align 8, !tbaa !4
  %24 = load ptr, ptr %7, align 8, !tbaa !43
  %25 = getelementptr inbounds nuw %struct.bmp_dest_struct, ptr %24, i32 0, i32 2
  %26 = load ptr, ptr %25, align 8, !tbaa !66
  %27 = load ptr, ptr %7, align 8, !tbaa !43
  %28 = getelementptr inbounds nuw %struct.bmp_dest_struct, ptr %27, i32 0, i32 6
  %29 = load i32, ptr %28, align 4, !tbaa !67
  %30 = call ptr %22(ptr noundef %23, ptr noundef %26, i32 noundef %29, i32 noundef 1, i32 noundef 1)
  store ptr %30, ptr %8, align 8, !tbaa !87
  %31 = load ptr, ptr %7, align 8, !tbaa !43
  %32 = getelementptr inbounds nuw %struct.bmp_dest_struct, ptr %31, i32 0, i32 6
  %33 = load i32, ptr %32, align 4, !tbaa !67
  %34 = add i32 %33, 1
  store i32 %34, ptr %32, align 4, !tbaa !67
  %35 = load ptr, ptr %8, align 8, !tbaa !87
  %36 = getelementptr inbounds ptr, ptr %35, i64 0
  %37 = load ptr, ptr %36, align 8, !tbaa !88
  store ptr %37, ptr %10, align 8, !tbaa !88
  br label %42

38:                                               ; preds = %3
  %39 = load ptr, ptr %7, align 8, !tbaa !43
  %40 = getelementptr inbounds nuw %struct.bmp_dest_struct, ptr %39, i32 0, i32 8
  %41 = load ptr, ptr %40, align 8, !tbaa !74
  store ptr %41, ptr %10, align 8, !tbaa !88
  br label %42

42:                                               ; preds = %38, %17
  %43 = load ptr, ptr %7, align 8, !tbaa !43
  %44 = getelementptr inbounds nuw %struct.bmp_dest_struct, ptr %43, i32 0, i32 0
  %45 = getelementptr inbounds nuw %struct.djpeg_dest_struct, ptr %44, i32 0, i32 5
  %46 = load ptr, ptr %45, align 8, !tbaa !77
  %47 = getelementptr inbounds ptr, ptr %46, i64 0
  %48 = load ptr, ptr %47, align 8, !tbaa !88
  store ptr %48, ptr %9, align 8, !tbaa !88
  %49 = load ptr, ptr %10, align 8, !tbaa !88
  %50 = load ptr, ptr %9, align 8, !tbaa !88
  %51 = load ptr, ptr %4, align 8, !tbaa !4
  %52 = getelementptr inbounds nuw %struct.jpeg_decompress_struct, ptr %51, i32 0, i32 27
  %53 = load i32, ptr %52, align 8, !tbaa !56
  %54 = zext i32 %53 to i64
  call void @llvm.memcpy.p0.p0.i64(ptr align 1 %49, ptr align 1 %50, i64 %54, i1 false)
  %55 = load ptr, ptr %4, align 8, !tbaa !4
  %56 = getelementptr inbounds nuw %struct.jpeg_decompress_struct, ptr %55, i32 0, i32 27
  %57 = load i32, ptr %56, align 8, !tbaa !56
  %58 = load ptr, ptr %10, align 8, !tbaa !88
  %59 = zext i32 %57 to i64
  %60 = getelementptr inbounds nuw i8, ptr %58, i64 %59
  store ptr %60, ptr %10, align 8, !tbaa !88
  %61 = load ptr, ptr %7, align 8, !tbaa !43
  %62 = getelementptr inbounds nuw %struct.bmp_dest_struct, ptr %61, i32 0, i32 5
  %63 = load i32, ptr %62, align 8, !tbaa !63
  store i32 %63, ptr %11, align 4, !tbaa !9
  br label %64

64:                                               ; preds = %68, %42
  %65 = load i32, ptr %11, align 4, !tbaa !9
  %66 = add nsw i32 %65, -1
  store i32 %66, ptr %11, align 4, !tbaa !9
  %67 = icmp sge i32 %66, 0
  br i1 %67, label %68, label %71

68:                                               ; preds = %64
  %69 = load ptr, ptr %10, align 8, !tbaa !88
  %70 = getelementptr inbounds nuw i8, ptr %69, i32 1
  store ptr %70, ptr %10, align 8, !tbaa !88
  store i8 0, ptr %69, align 1, !tbaa !38
  br label %64, !llvm.loop !91

71:                                               ; preds = %64
  %72 = load ptr, ptr %7, align 8, !tbaa !43
  %73 = getelementptr inbounds nuw %struct.bmp_dest_struct, ptr %72, i32 0, i32 7
  %74 = load i32, ptr %73, align 8, !tbaa !75
  %75 = icmp ne i32 %74, 0
  br i1 %75, label %89, label %76

76:                                               ; preds = %71
  %77 = load ptr, ptr %7, align 8, !tbaa !43
  %78 = getelementptr inbounds nuw %struct.bmp_dest_struct, ptr %77, i32 0, i32 8
  %79 = load ptr, ptr %78, align 8, !tbaa !74
  %80 = load ptr, ptr %7, align 8, !tbaa !43
  %81 = getelementptr inbounds nuw %struct.bmp_dest_struct, ptr %80, i32 0, i32 4
  %82 = load i32, ptr %81, align 4, !tbaa !58
  %83 = zext i32 %82 to i64
  %84 = load ptr, ptr %7, align 8, !tbaa !43
  %85 = getelementptr inbounds nuw %struct.bmp_dest_struct, ptr %84, i32 0, i32 0
  %86 = getelementptr inbounds nuw %struct.djpeg_dest_struct, ptr %85, i32 0, i32 4
  %87 = load ptr, ptr %86, align 8, !tbaa !81
  %88 = call i64 @fwrite(ptr noundef %79, i64 noundef 1, i64 noundef %83, ptr noundef %87)
  br label %89

89:                                               ; preds = %76, %71
  call void @llvm.lifetime.end.p0(i64 4, ptr %11) #7
  call void @llvm.lifetime.end.p0(i64 8, ptr %10) #7
  call void @llvm.lifetime.end.p0(i64 8, ptr %9) #7
  call void @llvm.lifetime.end.p0(i64 8, ptr %8) #7
  call void @llvm.lifetime.end.p0(i64 8, ptr %7) #7
  ret void
}