; Function Attrs: nounwind uwtable
define internal void @put_gray_rows(ptr noundef %0, ptr noundef captures(none) %1, i32 %2) #0 {
  %4 = getelementptr inbounds nuw i8, ptr %1, i64 104
  %5 = load i32, ptr %4, align 8, !tbaa !66
  %.not = icmp eq i32 %5, 0
  br i1 %.not, label %18, label %6

6:                                                ; preds = %3
  %7 = getelementptr inbounds nuw i8, ptr %0, i64 8
  %8 = load ptr, ptr %7, align 8, !tbaa !37
  %9 = getelementptr inbounds nuw i8, ptr %8, i64 56
  %10 = load ptr, ptr %9, align 8, !tbaa !71
  %11 = getelementptr inbounds nuw i8, ptr %1, i64 80
  %12 = load ptr, ptr %11, align 8, !tbaa !59
  %13 = getelementptr inbounds nuw i8, ptr %1, i64 100
  %14 = load i32, ptr %13, align 4, !tbaa !60
  %15 = tail call ptr %10(ptr noundef %0, ptr noundef %12, i32 noundef %14, i32 noundef 1, i32 noundef 1) #7
  %16 = load i32, ptr %13, align 4, !tbaa !60
  %17 = add i32 %16, 1
  store i32 %17, ptr %13, align 4, !tbaa !60
  br label %20

18:                                               ; preds = %3
  %19 = getelementptr inbounds nuw i8, ptr %1, i64 112
  br label %20

20:                                               ; preds = %18, %6
  %.021.in = phi ptr [ %15, %6 ], [ %19, %18 ]
  %.021 = load ptr, ptr %.021.in, align 8, !tbaa !72
  %21 = getelementptr inbounds nuw i8, ptr %1, i64 40
  %22 = load ptr, ptr %21, align 8, !tbaa !68
  %23 = load ptr, ptr %22, align 8, !tbaa !72
  %24 = getelementptr inbounds nuw i8, ptr %0, i64 136
  %25 = load i32, ptr %24, align 8, !tbaa !52
  %26 = zext i32 %25 to i64
  tail call void @llvm.memcpy.p0.p0.i64(ptr align 1 %.021, ptr align 1 %23, i64 %26, i1 false)
  %27 = getelementptr inbounds nuw i8, ptr %1, i64 96
  %28 = load i32, ptr %27, align 8, !tbaa !56
  %29 = icmp sgt i32 %28, 0
  br i1 %29, label %.lr.ph.preheader, label %._crit_edge

.lr.ph.preheader:                                 ; preds = %20
  %30 = load i32, ptr %24, align 8, !tbaa !52
  %31 = zext i32 %30 to i64
  %32 = getelementptr i8, ptr %.021, i64 %31
  %33 = zext nneg i32 %28 to i64
  tail call void @llvm.memset.p0.i64(ptr align 1 %32, i8 0, i64 %33, i1 false), !tbaa !35
  br label %._crit_edge

._crit_edge:                                      ; preds = %.lr.ph.preheader, %20
  %34 = load i32, ptr %4, align 8, !tbaa !66
  %.not23 = icmp eq i32 %34, 0
  br i1 %.not23, label %35, label %44

35:                                               ; preds = %._crit_edge
  %36 = getelementptr inbounds nuw i8, ptr %1, i64 112
  %37 = load ptr, ptr %36, align 8, !tbaa !65
  %38 = getelementptr inbounds nuw i8, ptr %1, i64 92
  %39 = load i32, ptr %38, align 4, !tbaa !54
  %40 = zext i32 %39 to i64
  %41 = getelementptr inbounds nuw i8, ptr %1, i64 32
  %42 = load ptr, ptr %41, align 8, !tbaa !70
  %43 = tail call i64 @fwrite(ptr noundef %37, i64 noundef 1, i64 noundef %40, ptr noundef %42)
  br label %44

44:                                               ; preds = %35, %._crit_edge
  ret void
}